target datalayout = "e-m:e-p270:32:32-p271:32:32-p272:64:64-i64:64-i128:128-f80:128-n8:16:32:64-S128"
target triple = "x86_64-pc-linux-gnu"

%struct.AVTextFormatter = type { ptr, i32, ptr, ptr, ptr, ptr, ptr, ptr, ptr, i32 }
%struct.AVTextFormatContext = type { ptr, ptr, ptr, ptr, ptr, ptr, i32, i32, [12 x i32], [12 x [100 x i32]], [12 x ptr], [12 x %struct.AVBPrint], i32, i32, i32, i32, i32, ptr, i32, ptr, i32 }
%struct.AVBPrint = type { ptr, i32, i32, i32, [1 x i8], [1000 x i8] }
%struct.AVTextFormatSection = type { i32, ptr, i32, [12 x i32], ptr, ptr, ptr, ptr, i32, ptr, ptr, ptr, ptr }

@.str.14 = private unnamed_addr constant [38 x i8] c"Invalid level for section_footer: %d\0A\00", align 1

; Function Attrs: nounwind uwtable
define void @avtext_print_section_footer(ptr noundef %0) #0 {
  %2 = alloca ptr, align 8
  %3 = alloca i32, align 4
  %4 = alloca i32, align 4
  store ptr %0, ptr %2, align 8, !tbaa !10
  %5 = load ptr, ptr %2, align 8, !tbaa !10
  %6 = getelementptr inbounds nuw %struct.AVTextFormatContext, ptr %5, i32 0, i32 7
  %7 = load i32, ptr %6, align 4, !tbaa !46
  %8 = icmp slt i32 %7, 0
  br i1 %8, label %14, label %9

9:                                                ; preds = %1
  %10 = load ptr, ptr %2, align 8, !tbaa !10
  %11 = getelementptr inbounds nuw %struct.AVTextFormatContext, ptr %10, i32 0, i32 7
  %12 = load i32, ptr %11, align 4, !tbaa !46
  %13 = icmp sge i32 %12, 12
  br i1 %13, label %14, label %19

14:                                               ; preds = %9, %1
  %15 = load ptr, ptr %2, align 8, !tbaa !10
  %16 = load ptr, ptr %2, align 8, !tbaa !10
  %17 = getelementptr inbounds nuw %struct.AVTextFormatContext, ptr %16, i32 0, i32 7
  %18 = load i32, ptr %17, align 4, !tbaa !46
  call void (ptr, i32, ptr, ...) @av_log(ptr noundef %15, i32 noundef 16, ptr noundef @.str.14, i32 noundef %18)
  br label %94

19:                                               ; preds = %9
  call void @llvm.lifetime.start.p0(i64 4, ptr %3) #10
  %20 = load ptr, ptr %2, align 8, !tbaa !10
  %21 = getelementptr inbounds nuw %struct.AVTextFormatContext, ptr %20, i32 0, i32 10
  %22 = load ptr, ptr %2, align 8, !tbaa !10
  %23 = getelementptr inbounds nuw %struct.AVTextFormatContext, ptr %22, i32 0, i32 7
  %24 = load i32, ptr %23, align 4, !tbaa !46
  %25 = sext i32 %24 to i64
  %26 = getelementptr inbounds [12 x ptr], ptr %21, i64 0, i64 %25
  %27 = load ptr, ptr %26, align 8, !tbaa !31
  %28 = getelementptr inbounds nuw %struct.AVTextFormatSection, ptr %27, i32 0, i32 0
  %29 = load i32, ptr %28, align 8, !tbaa !74
  store i32 %29, ptr %3, align 4, !tbaa !12
  call void @llvm.lifetime.start.p0(i64 4, ptr %4) #10
  %30 = load ptr, ptr %2, align 8, !tbaa !10
  %31 = getelementptr inbounds nuw %struct.AVTextFormatContext, ptr %30, i32 0, i32 7
  %32 = load i32, ptr %31, align 4, !tbaa !46
  %33 = icmp ne i32 %32, 0
  br i1 %33, label %34, label %46

34:                                               ; preds = %19
  %35 = load ptr, ptr %2, align 8, !tbaa !10
  %36 = getelementptr inbounds nuw %struct.AVTextFormatContext, ptr %35, i32 0, i32 10
  %37 = load ptr, ptr %2, align 8, !tbaa !10
  %38 = getelementptr inbounds nuw %struct.AVTextFormatContext, ptr %37, i32 0, i32 7
  %39 = load i32, ptr %38, align 4, !tbaa !46
  %40 = sub nsw i32 %39, 1
  %41 = sext i32 %40 to i64
  %42 = getelementptr inbounds [12 x ptr], ptr %36, i64 0, i64 %41
  %43 = load ptr, ptr %42, align 8, !tbaa !31
  %44 = getelementptr inbounds nuw %struct.AVTextFormatSection, ptr %43, i32 0, i32 0
  %45 = load i32, ptr %44, align 8, !tbaa !74
  br label %47

46:                                               ; preds = %19
  br label %47

47:                                               ; preds = %46, %34
  %48 = phi i32 [ %45, %34 ], [ -1, %46 ]
  store i32 %48, ptr %4, align 4, !tbaa !12
  %49 = load i32, ptr %4, align 4, !tbaa !12
  %50 = icmp ne i32 %49, -1
  br i1 %50, label %51, label %75

51:                                               ; preds = %47
  %52 = load ptr, ptr %2, align 8, !tbaa !10
  %53 = getelementptr inbounds nuw %struct.AVTextFormatContext, ptr %52, i32 0, i32 8
  %54 = load ptr, ptr %2, align 8, !tbaa !10
  %55 = getelementptr inbounds nuw %struct.AVTextFormatContext, ptr %54, i32 0, i32 7
  %56 = load i32, ptr %55, align 4, !tbaa !46
  %57 = sub nsw i32 %56, 1
  %58 = sext i32 %57 to i64
  %59 = getelementptr inbounds [12 x i32], ptr %53, i64 0, i64 %58
  %60 = load i32, ptr %59, align 4, !tbaa !12
  %61 = add i32 %60, 1
  store i32 %61, ptr %59, align 4, !tbaa !12
  %62 = load ptr, ptr %2, align 8, !tbaa !10
  %63 = getelementptr inbounds nuw %struct.AVTextFormatContext, ptr %62, i32 0, i32 9
  %64 = load ptr, ptr %2, align 8, !tbaa !10
  %65 = getelementptr inbounds nuw %struct.AVTextFormatContext, ptr %64, i32 0, i32 7
  %66 = load i32, ptr %65, align 4, !tbaa !46
  %67 = sub nsw i32 %66, 1
  %68 = sext i32 %67 to i64
  %69 = getelementptr inbounds [12 x [100 x i32]], ptr %63, i64 0, i64 %68
  %70 = load i32, ptr %3, align 4, !tbaa !12
  %71 = sext i32 %70 to i64
  %72 = getelementptr inbounds [100 x i32], ptr %69, i64 0, i64 %71
  %73 = load i32, ptr %72, align 4, !tbaa !12
  %74 = add i32 %73, 1
  store i32 %74, ptr %72, align 4, !tbaa !12
  br label %75

75:                                               ; preds = %51, %47
  %76 = load ptr, ptr %2, align 8, !tbaa !10
  %77 = getelementptr inbounds nuw %struct.AVTextFormatContext, ptr %76, i32 0, i32 1
  %78 = load ptr, ptr %77, align 8, !tbaa !14
  %79 = getelementptr inbounds nuw %struct.AVTextFormatter, ptr %78, i32 0, i32 6
  %80 = load ptr, ptr %79, align 8, !tbaa !76
  %81 = icmp ne ptr %80, null
  br i1 %81, label %82, label %89

82:                                               ; preds = %75
  %83 = load ptr, ptr %2, align 8, !tbaa !10
  %84 = getelementptr inbounds nuw %struct.AVTextFormatContext, ptr %83, i32 0, i32 1
  %85 = load ptr, ptr %84, align 8, !tbaa !14
  %86 = getelementptr inbounds nuw %struct.AVTextFormatter, ptr %85, i32 0, i32 6
  %87 = load ptr, ptr %86, align 8, !tbaa !76
  %88 = load ptr, ptr %2, align 8, !tbaa !10
  call void %87(ptr noundef %88)
  br label %89

89:                                               ; preds = %82, %75
  %90 = load ptr, ptr %2, align 8, !tbaa !10
  %91 = getelementptr inbounds nuw %struct.AVTextFormatContext, ptr %90, i32 0, i32 7
  %92 = load i32, ptr %91, align 4, !tbaa !46
  %93 = add nsw i32 %92, -1
  store i32 %93, ptr %91, align 4, !tbaa !46
  call void @llvm.lifetime.end.p0(i64 4, ptr %4) #10
  call void @llvm.lifetime.end.p0(i64 4, ptr %3) #10
  br label %94

94:                                               ; preds = %89, %14
  ret void
}