; Function Attrs: nounwind uwtable
define void @avtext_print_section_footer(ptr noundef %0) local_unnamed_addr #0 {
  %2 = getelementptr inbounds nuw i8, ptr %0, i64 52
  %3 = load i32, ptr %2, align 4, !tbaa !38
  %or.cond = icmp ugt i32 %3, 11
  br i1 %or.cond, label %4, label %5

4:                                                ; preds = %1
  tail call void (ptr, i32, ptr, ...) @av_log(ptr noundef nonnull %0, i32 noundef 16, ptr noundef nonnull @.str.14, i32 noundef %3) #12
  br label %36

5:                                                ; preds = %1
  %6 = getelementptr inbounds nuw i8, ptr %0, i64 4904
  %7 = zext nneg i32 %3 to i64
  %8 = getelementptr inbounds nuw [12 x ptr], ptr %6, i64 0, i64 %7
  %9 = load ptr, ptr %8, align 8, !tbaa !60
  %10 = load i32, ptr %9, align 8, !tbaa !62
  %.not = icmp eq i32 %3, 0
  br i1 %.not, label %.critedge, label %11

11:                                               ; preds = %5
  %12 = add nsw i32 %3, -1
  %13 = zext nneg i32 %12 to i64
  %14 = getelementptr inbounds nuw [12 x ptr], ptr %6, i64 0, i64 %13
  %15 = load ptr, ptr %14, align 8, !tbaa !60
  %16 = load i32, ptr %15, align 8, !tbaa !62
  %17 = icmp eq i32 %16, -1
  br i1 %17, label %.critedge, label %18

18:                                               ; preds = %11
  %19 = getelementptr inbounds nuw i8, ptr %0, i64 56
  %20 = getelementptr inbounds nuw [12 x i32], ptr %19, i64 0, i64 %13
  %21 = load i32, ptr %20, align 4, !tbaa !59
  %22 = add i32 %21, 1
  store i32 %22, ptr %20, align 4, !tbaa !59
  %23 = getelementptr inbounds nuw i8, ptr %0, i64 104
  %24 = sext i32 %10 to i64
  %25 = getelementptr inbounds [12 x [100 x i32]], ptr %23, i64 0, i64 %13, i64 %24
  %26 = load i32, ptr %25, align 4, !tbaa !59
  %27 = add i32 %26, 1
  store i32 %27, ptr %25, align 4, !tbaa !59
  br label %.critedge

.critedge:                                        ; preds = %5, %18, %11
  %28 = getelementptr inbounds nuw i8, ptr %0, i64 8
  %29 = load ptr, ptr %28, align 8, !tbaa !9
  %30 = getelementptr inbounds nuw i8, ptr %29, i64 48
  %31 = load ptr, ptr %30, align 8, !tbaa !64
  %.not20 = icmp eq ptr %31, null
  br i1 %.not20, label %33, label %32

32:                                               ; preds = %.critedge
  tail call void %31(ptr noundef nonnull %0) #12
  br label %33

33:                                               ; preds = %32, %.critedge
  %34 = load i32, ptr %2, align 4, !tbaa !38
  %35 = add nsw i32 %34, -1
  store i32 %35, ptr %2, align 4, !tbaa !38
  br label %36

36:                                               ; preds = %33, %4
  ret void
}